target datalayout = "e-m:e-p270:32:32-p271:32:32-p272:64:64-i64:64-i128:128-f80:128-n8:16:32:64-S128"
target triple = "x86_64-pc-linux-gnu"

%struct.rb_io = type { i64, ptr, i32, i32, i32, i32, i64, ptr, %struct.rb_io_internal_buffer, %struct.rb_io_internal_buffer, i64, %struct.rb_io_encoding, ptr, %struct.rb_io_internal_buffer, ptr, i64, i32, i32, i64, i64, i64 }
%struct.rb_io_encoding = type { ptr, ptr, i32, i64 }
%struct.rb_io_internal_buffer = type <{ ptr, i32, i32, i32 }>
%struct.RFile = type { %struct.RBasic, ptr }
%struct.RBasic = type { i64, i64 }

@rb_eIOError = dso_local global i64 0, align 8
@.str.4 = private unnamed_addr constant [21 x i8] c"uninitialized stream\00", align 1
@closed_stream = internal constant [14 x i8] c"closed stream\00", align 1

; Function Attrs: nounwind sspstrong uwtable
define internal void @io_fd_check_closed(i32 noundef %0) #0 {
  %2 = alloca i32, align 4
  store i32 %0, ptr %2, align 4, !tbaa !13
  %3 = load i32, ptr %2, align 4, !tbaa !13
  %4 = icmp slt i32 %3, 0
  br i1 %4, label %5, label %7

5:                                                ; preds = %1
  call void @rb_thread_check_ints()
  %6 = load i64, ptr @rb_eIOError, align 8, !tbaa !32
  call void (i64, ptr, ...) @rb_raise(i64 noundef %6, ptr noundef @closed_stream) #31
  unreachable

7:                                                ; preds = %1
  ret void
}

; Function Attrs: nounwind sspstrong uwtable
define dso_local void @rb_io_check_initialized(ptr noundef %0) #0 {
  %2 = alloca ptr, align 8
  store ptr %0, ptr %2, align 8, !tbaa !7
  %3 = load ptr, ptr %2, align 8, !tbaa !7
  %4 = icmp ne ptr %3, null
  br i1 %4, label %7, label %5

5:                                                ; preds = %1
  %6 = load i64, ptr @rb_eIOError, align 8, !tbaa !32
  call void (i64, ptr, ...) @rb_raise(i64 noundef %6, ptr noundef @.str.4) #31
  unreachable

7:                                                ; preds = %1
  ret void
}

; Function Attrs: nounwind sspstrong uwtable
define dso_local void @rb_io_check_closed(ptr noundef %0) #0 {
  %2 = alloca ptr, align 8
  store ptr %0, ptr %2, align 8, !tbaa !7
  %3 = load ptr, ptr %2, align 8, !tbaa !7
  call void @rb_io_check_initialized(ptr noundef %3)
  %4 = load ptr, ptr %2, align 8, !tbaa !7
  %5 = getelementptr inbounds nuw %struct.rb_io, ptr %4, i32 0, i32 2
  %6 = load i32, ptr %5, align 8, !tbaa !15
  call void @io_fd_check_closed(i32 noundef %6)
  ret void
}

; Function Attrs: nounwind sspstrong uwtable
define dso_local i64 @rb_io_maybe_wait(i32 noundef %0, i64 noundef %1, i64 noundef %2, i64 noundef %3) #0 {
  %5 = alloca i64, align 8
  %6 = alloca i32, align 4
  %7 = alloca i64, align 8
  %8 = alloca i64, align 8
  %9 = alloca i64, align 8
  store i32 %0, ptr %6, align 4, !tbaa !13
  store i64 %1, ptr %7, align 8, !tbaa !32
  store i64 %2, ptr %8, align 8, !tbaa !32
  store i64 %3, ptr %9, align 8, !tbaa !32
  %10 = load i64, ptr %7, align 8, !tbaa !32
  %11 = inttoptr i64 %10 to ptr
  %12 = getelementptr inbounds nuw %struct.RFile, ptr %11, i32 0, i32 1
  %13 = load ptr, ptr %12, align 8, !tbaa !34
  call void @rb_io_check_closed(ptr noundef %13)
  %14 = load i32, ptr %6, align 4, !tbaa !13
  switch i32 %14, label %22 [
    i32 4, label %15
    i32 85, label %15
    i32 11, label %17
  ]

15:                                               ; preds = %4, %4
  call void @rb_thread_check_ints()
  %16 = load i64, ptr %8, align 8, !tbaa !32
  store i64 %16, ptr %5, align 8
  br label %23

17:                                               ; preds = %4
  %18 = load i64, ptr %7, align 8, !tbaa !32
  %19 = load i64, ptr %8, align 8, !tbaa !32
  %20 = load i64, ptr %9, align 8, !tbaa !32
  %21 = call i64 @rb_io_wait(i64 noundef %18, i64 noundef %19, i64 noundef %20)
  store i64 %21, ptr %5, align 8
  br label %23

22:                                               ; preds = %4
  store i64 4, ptr %5, align 8
  br label %23

23:                                               ; preds = %22, %17, %15
  %24 = load i64, ptr %5, align 8
  ret i64 %24
}