; Function Attrs: nounwind sspstrong uwtable
define dso_local i64 @rb_io_maybe_wait(i32 noundef %0, i64 noundef %1, i64 noundef %2, i64 noundef %3) local_unnamed_addr #0 {
  %5 = inttoptr i64 %1 to ptr
  %6 = getelementptr inbounds nuw i8, ptr %5, i64 16
  %7 = load ptr, ptr %6, align 8, !tbaa !29
  %.not.i.i = icmp eq ptr %7, null
  br i1 %.not.i.i, label %8, label %rb_io_check_initialized.exit.i

8:                                                ; preds = %4
  %9 = load i64, ptr @rb_eIOError, align 8, !tbaa !23
  tail call void (i64, ptr, ...) @rb_raise(i64 noundef %9, ptr noundef nonnull @.str.4) #30
  unreachable

rb_io_check_initialized.exit.i:                   ; preds = %4
  %10 = getelementptr inbounds nuw i8, ptr %7, i64 16
  %11 = load i32, ptr %10, align 8, !tbaa !7
  %12 = icmp slt i32 %11, 0
  br i1 %12, label %13, label %rb_io_check_closed.exit

13:                                               ; preds = %rb_io_check_initialized.exit.i
  tail call void @rb_thread_check_ints() #28
  %14 = load i64, ptr @rb_eIOError, align 8, !tbaa !23
  tail call void (i64, ptr, ...) @rb_raise(i64 noundef %14, ptr noundef nonnull @closed_stream) #30
  unreachable

rb_io_check_closed.exit:                          ; preds = %rb_io_check_initialized.exit.i
  switch i32 %0, label %18 [
    i32 4, label %15
    i32 85, label %15
    i32 11, label %16
  ]

15:                                               ; preds = %rb_io_check_closed.exit, %rb_io_check_closed.exit
  tail call void @rb_thread_check_ints() #28
  br label %18

16:                                               ; preds = %rb_io_check_closed.exit
  %17 = tail call i64 @rb_io_wait(i64 noundef %1, i64 noundef %2, i64 noundef %3)
  br label %18

18:                                               ; preds = %rb_io_check_closed.exit, %16, %15
  %.0 = phi i64 [ %17, %16 ], [ %2, %15 ], [ 4, %rb_io_check_closed.exit ]
  ret i64 %.0
}